target datalayout = "e-m:e-p270:32:32-p271:32:32-p272:64:64-i64:64-i128:128-f80:128-n8:16:32:64-S128"
target triple = "x86_64-pc-linux-gnu"

%"struct.std::_Rb_tree_header" = type { %"struct.std::_Rb_tree_node_base", i64 }
%"struct.std::_Rb_tree_node_base" = type { i32, ptr, ptr, ptr }
%"class.std::optional" = type { %"struct.std::_Optional_base" }
%"struct.std::_Optional_base" = type { %"struct.std::_Optional_payload" }
%"struct.std::_Optional_payload" = type { %"struct.std::_Optional_payload_base.base", [3 x i8] }
%"struct.std::_Optional_payload_base.base" = type <{ %"union.std::_Optional_payload_base<std::pair<unsigned int, unsigned int>>::_Storage", i8 }>
%"union.std::_Optional_payload_base<std::pair<unsigned int, unsigned int>>::_Storage" = type { %"struct.std::pair" }
%"struct.std::pair" = type { i32, i32 }
%"class.std::set" = type { %"class.std::_Rb_tree" }
%"class.std::_Rb_tree" = type { %"struct.std::_Rb_tree<std::pair<unsigned long, unsigned long>, std::pair<unsigned long, unsigned long>, std::_Identity<std::pair<unsigned long, unsigned long>>, std::less<std::pair<unsigned long, unsigned long>>>::_Rb_tree_impl" }
%"struct.std::_Rb_tree<std::pair<unsigned long, unsigned long>, std::pair<unsigned long, unsigned long>, std::_Identity<std::pair<unsigned long, unsigned long>>, std::less<std::pair<unsigned long, unsigned long>>>::_Rb_tree_impl" = type { %"struct.std::_Rb_tree_key_compare", %"struct.std::_Rb_tree_header" }
%"struct.std::_Rb_tree_key_compare" = type { %"struct.std::less" }
%"struct.std::less" = type { i8 }

; Function Attrs: mustprogress nounwind uwtable
define linkonce_odr void @_ZNSt15_Rb_tree_header8_M_resetEv(ptr noundef nonnull align 8 dereferenceable(40) %0) #2 comdat align 2 {
  %2 = alloca ptr, align 8
  store ptr %0, ptr %2, align 8
  %3 = load ptr, ptr %2, align 8
  %4 = getelementptr inbounds %"struct.std::_Rb_tree_header", ptr %3, i32 0, i32 0
  %5 = getelementptr inbounds %"struct.std::_Rb_tree_node_base", ptr %4, i32 0, i32 1
  store ptr null, ptr %5, align 8
  %6 = getelementptr inbounds %"struct.std::_Rb_tree_header", ptr %3, i32 0, i32 0
  %7 = getelementptr inbounds %"struct.std::_Rb_tree_header", ptr %3, i32 0, i32 0
  %8 = getelementptr inbounds %"struct.std::_Rb_tree_node_base", ptr %7, i32 0, i32 2
  store ptr %6, ptr %8, align 8
  %9 = getelementptr inbounds %"struct.std::_Rb_tree_header", ptr %3, i32 0, i32 0
  %10 = getelementptr inbounds %"struct.std::_Rb_tree_header", ptr %3, i32 0, i32 0
  %11 = getelementptr inbounds %"struct.std::_Rb_tree_node_base", ptr %10, i32 0, i32 3
  store ptr %9, ptr %11, align 8
  %12 = getelementptr inbounds %"struct.std::_Rb_tree_header", ptr %3, i32 0, i32 1
  store i64 0, ptr %12, align 8
  ret void
}

; Function Attrs: mustprogress nounwind uwtable
define linkonce_odr void @_ZNSt15__new_allocatorISt13_Rb_tree_nodeISt4pairImmEEEC2Ev(ptr noundef nonnull align 1 dereferenceable(1) %0) unnamed_addr #2 comdat align 2 {
  %2 = alloca ptr, align 8
  store ptr %0, ptr %2, align 8
  ret void
}

; Function Attrs: mustprogress nounwind uwtable
define linkonce_odr void @_ZNSt15_Rb_tree_headerC2Ev(ptr noundef nonnull align 8 dereferenceable(40) %0) unnamed_addr #2 comdat align 2 personality ptr @__gxx_personality_v0 {
  %2 = alloca ptr, align 8
  store ptr %0, ptr %2, align 8
  %3 = load ptr, ptr %2, align 8
  %4 = getelementptr inbounds %"struct.std::_Rb_tree_header", ptr %3, i32 0, i32 0
  %5 = getelementptr inbounds %"struct.std::_Rb_tree_node_base", ptr %4, i32 0, i32 0
  store i32 0, ptr %5, align 8
  invoke void @_ZNSt15_Rb_tree_header8_M_resetEv(ptr noundef nonnull align 8 dereferenceable(40) %3)
          to label %6 unwind label %7

6:                                                ; preds = %1
  ret void

7:                                                ; preds = %1
  %8 = landingpad { ptr, i32 }
          catch ptr null
  %9 = extractvalue { ptr, i32 } %8, 0
  call void @__clang_call_terminate(ptr %9) #21
  unreachable
}

; Function Attrs: mustprogress nounwind uwtable
define linkonce_odr void @_ZNSt20_Rb_tree_key_compareISt4lessISt4pairImmEEEC2Ev(ptr noundef nonnull align 1 dereferenceable(1) %0) unnamed_addr #2 comdat align 2 {
  %2 = alloca ptr, align 8
  store ptr %0, ptr %2, align 8
  ret void
}

; Function Attrs: mustprogress nounwind uwtable
define linkonce_odr void @_ZNSaISt13_Rb_tree_nodeISt4pairImmEEEC2Ev(ptr noundef nonnull align 1 dereferenceable(1) %0) unnamed_addr #2 comdat align 2 {
  %2 = alloca ptr, align 8
  store ptr %0, ptr %2, align 8
  %3 = load ptr, ptr %2, align 8
  call void @_ZNSt15__new_allocatorISt13_Rb_tree_nodeISt4pairImmEEEC2Ev(ptr noundef nonnull align 1 dereferenceable(1) %3) #1
  ret void
}

; Function Attrs: mustprogress nounwind uwtable
define linkonce_odr void @_ZNSt8_Rb_treeISt4pairImmES1_St9_IdentityIS1_ESt4lessIS1_ESaIS1_EE13_Rb_tree_implIS5_Lb1EEC2Ev(ptr noundef nonnull align 8 dereferenceable(48) %0) unnamed_addr #2 comdat align 2 {
  %2 = alloca ptr, align 8
  store ptr %0, ptr %2, align 8
  %3 = load ptr, ptr %2, align 8
  call void @_ZNSaISt13_Rb_tree_nodeISt4pairImmEEEC2Ev(ptr noundef nonnull align 1 dereferenceable(1) %3) #1
  call void @_ZNSt20_Rb_tree_key_compareISt4lessISt4pairImmEEEC2Ev(ptr noundef nonnull align 1 dereferenceable(1) %3) #1
  %4 = getelementptr inbounds i8, ptr %3, i64 8
  call void @_ZNSt15_Rb_tree_headerC2Ev(ptr noundef nonnull align 8 dereferenceable(40) %4) #1
  ret void
}

; Function Attrs: mustprogress nounwind uwtable
define linkonce_odr void @_ZNSt8_Rb_treeISt4pairImmES1_St9_IdentityIS1_ESt4lessIS1_ESaIS1_EEC2Ev(ptr noundef nonnull align 8 dereferenceable(48) %0) unnamed_addr #2 comdat align 2 {
  %2 = alloca ptr, align 8
  store ptr %0, ptr %2, align 8
  %3 = load ptr, ptr %2, align 8
  %4 = getelementptr inbounds %"class.std::_Rb_tree", ptr %3, i32 0, i32 0
  call void @_ZNSt8_Rb_treeISt4pairImmES1_St9_IdentityIS1_ESt4lessIS1_ESaIS1_EE13_Rb_tree_implIS5_Lb1EEC2Ev(ptr noundef nonnull align 8 dereferenceable(48) %4) #1
  ret void
}

; Function Attrs: mustprogress nounwind uwtable
define linkonce_odr void @_ZNSt3setISt4pairImmESt4lessIS1_ESaIS1_EEC2Ev(ptr noundef nonnull align 8 dereferenceable(48) %0) unnamed_addr #2 comdat align 2 {
  %2 = alloca ptr, align 8
  store ptr %0, ptr %2, align 8
  %3 = load ptr, ptr %2, align 8
  %4 = getelementptr inbounds %"class.std::set", ptr %3, i32 0, i32 0
  call void @_ZNSt8_Rb_treeISt4pairImmES1_St9_IdentityIS1_ESt4lessIS1_ESaIS1_EEC2Ev(ptr noundef nonnull align 8 dereferenceable(48) %4) #1
  ret void
}

; Function Attrs: mustprogress uwtable
define void @_ZN3nix24canonicalisePathMetaDataERKNSt7__cxx1112basic_stringIcSt11char_traitsIcESaIcEEESt8optionalISt4pairIjjEE(ptr noundef nonnull align 8 dereferenceable(32) %0, i64 %1, i8 %2) #5 personality ptr @__gxx_personality_v0 {
  %4 = alloca %"class.std::optional", align 4
  %5 = alloca { i64, i8 }, align 4
  %6 = alloca ptr, align 8
  %7 = alloca %"class.std::set", align 8
  %8 = alloca %"class.std::optional", align 4
  %9 = alloca { i64, i8 }, align 4
  %10 = alloca ptr, align 8
  %11 = alloca i32, align 4
  %12 = getelementptr inbounds { i64, i8 }, ptr %5, i32 0, i32 0
  store i64 %1, ptr %12, align 4
  %13 = getelementptr inbounds { i64, i8 }, ptr %5, i32 0, i32 1
  store i8 %2, ptr %13, align 4
  call void @llvm.memcpy.p0.p0.i64(ptr align 4 %4, ptr align 4 %5, i64 12, i1 false)
  store ptr %0, ptr %6, align 8
  call void @_ZNSt3setISt4pairImmESt4lessIS1_ESaIS1_EEC2Ev(ptr noundef nonnull align 8 dereferenceable(48) %7) #1
  %14 = load ptr, ptr %6, align 8
  call void @llvm.memcpy.p0.p0.i64(ptr align 4 %8, ptr align 4 %4, i64 12, i1 false)
  call void @llvm.memcpy.p0.p0.i64(ptr align 4 %9, ptr align 4 %8, i64 12, i1 false)
  %15 = getelementptr inbounds { i64, i8 }, ptr %9, i32 0, i32 0
  %16 = load i64, ptr %15, align 4
  %17 = getelementptr inbounds { i64, i8 }, ptr %9, i32 0, i32 1
  %18 = load i8, ptr %17, align 4
  invoke void @_ZN3nix24canonicalisePathMetaDataERKNSt7__cxx1112basic_stringIcSt11char_traitsIcESaIcEEESt8optionalISt4pairIjjEERSt3setIS9_ImmESt4lessISD_ESaISD_EE(ptr noundef nonnull align 8 dereferenceable(32) %14, i64 %16, i8 %18, ptr noundef nonnull align 8 dereferenceable(48) %7)
          to label %19 unwind label %20

19:                                               ; preds = %3
  call void @_ZNSt3setISt4pairImmESt4lessIS1_ESaIS1_EED2Ev(ptr noundef nonnull align 8 dereferenceable(48) %7) #1
  ret void

20:                                               ; preds = %3
  %21 = landingpad { ptr, i32 }
          cleanup
  %22 = extractvalue { ptr, i32 } %21, 0
  store ptr %22, ptr %10, align 8
  %23 = extractvalue { ptr, i32 } %21, 1
  store i32 %23, ptr %11, align 4
  call void @_ZNSt3setISt4pairImmESt4lessIS1_ESaIS1_EED2Ev(ptr noundef nonnull align 8 dereferenceable(48) %7) #1
  br label %24

24:                                               ; preds = %20
  %25 = load ptr, ptr %10, align 8
  %26 = load i32, ptr %11, align 4
  %27 = insertvalue { ptr, i32 } poison, ptr %25, 0
  %28 = insertvalue { ptr, i32 } %27, i32 %26, 1
  resume { ptr, i32 } %28
}