; Function Attrs: mustprogress uwtable
define void @_ZN3nix24canonicalisePathMetaDataERKNSt7__cxx1112basic_stringIcSt11char_traitsIcESaIcEEESt8optionalISt4pairIjjEE(ptr noundef nonnull align 8 dereferenceable(32) %0, i64 %1, i8 %2) local_unnamed_addr #4 personality ptr @__gxx_personality_v0 {
  %4 = alloca %"class.std::set", align 8
  %5 = getelementptr inbounds i8, ptr %4, i64 8
  store i32 0, ptr %5, align 8
  %6 = getelementptr inbounds i8, ptr %4, i64 16
  store ptr null, ptr %6, align 8
  %7 = getelementptr inbounds i8, ptr %4, i64 24
  store ptr %5, ptr %7, align 8
  %8 = getelementptr inbounds i8, ptr %4, i64 32
  store ptr %5, ptr %8, align 8
  %9 = getelementptr inbounds i8, ptr %4, i64 40
  store i64 0, ptr %9, align 8
  invoke void @_ZN3nix24canonicalisePathMetaDataERKNSt7__cxx1112basic_stringIcSt11char_traitsIcESaIcEEESt8optionalISt4pairIjjEERSt3setIS9_ImmESt4lessISD_ESaISD_EE(ptr noundef nonnull align 8 dereferenceable(32) %0, i64 %1, i8 %2, ptr noundef nonnull align 8 dereferenceable(48) %4)
          to label %10 unwind label %15

10:                                               ; preds = %3
  %11 = load ptr, ptr %6, align 8
  invoke void @_ZNSt8_Rb_treeISt4pairImmES1_St9_IdentityIS1_ESt4lessIS1_ESaIS1_EE8_M_eraseEPSt13_Rb_tree_nodeIS1_E(ptr noundef nonnull align 8 dereferenceable(48) %4, ptr noundef %11)
          to label %_ZNSt3setISt4pairImmESt4lessIS1_ESaIS1_EED2Ev.exit unwind label %12

12:                                               ; preds = %10
  %13 = landingpad { ptr, i32 }
          catch ptr null
  %14 = extractvalue { ptr, i32 } %13, 0
  call void @__clang_call_terminate(ptr %14) #30
  unreachable

_ZNSt3setISt4pairImmESt4lessIS1_ESaIS1_EED2Ev.exit: ; preds = %10
  ret void

15:                                               ; preds = %3
  %16 = landingpad { ptr, i32 }
          cleanup
  call void @_ZNSt3setISt4pairImmESt4lessIS1_ESaIS1_EED2Ev(ptr noundef nonnull align 8 dereferenceable(48) %4) #25
  resume { ptr, i32 } %16
}